; Function Attrs: null_pointer_is_valid sspstrong uwtable
define hidden ptr @extcap_get_help_for_ifname(ptr noundef %0) local_unnamed_addr #0 {
  tail call fastcc void @extcap_ensure_all_interfaces_loaded()
  %2 = icmp ne ptr %0, null
  %3 = load ptr, ptr @_tool_for_ifname, align 8
  %4 = icmp ne ptr %3, null
  %or.cond.i = select i1 %2, i1 %4, i1 false
  %5 = load ptr, ptr @_loaded_interfaces, align 8
  %6 = icmp ne ptr %5, null
  %or.cond3.i = select i1 %or.cond.i, i1 %6, i1 false
  br i1 %or.cond3.i, label %7, label %extcap_find_interface_for_ifname.exit.thread

7:                                                ; preds = %1
  %8 = tail call ptr @g_hash_table_lookup(ptr noundef nonnull %3, ptr noundef nonnull %0)
  %.not.i = icmp eq ptr %8, null
  br i1 %.not.i, label %extcap_find_interface_for_ifname.exit.thread, label %9

9:                                                ; preds = %7
  %10 = load ptr, ptr @_loaded_interfaces, align 8
  %11 = tail call ptr @g_hash_table_lookup(ptr noundef %10, ptr noundef nonnull %8)
  %.not34.i = icmp eq ptr %11, null
  br i1 %.not34.i, label %extcap_find_interface_for_ifname.exit.thread, label %12

12:                                               ; preds = %9
  %13 = getelementptr inbounds nuw i8, ptr %11, i64 32
  %.02343.i = load ptr, ptr %13, align 8
  %.not3544.i = icmp eq ptr %.02343.i, null
  br i1 %.not3544.i, label %extcap_find_interface_for_ifname.exit.thread, label %.lr.ph.i

14:                                               ; preds = %17
  %15 = getelementptr inbounds nuw i8, ptr %.02345.i, i64 8
  %.023.i = load ptr, ptr %15, align 8
  %.not35.i = icmp eq ptr %.023.i, null
  br i1 %.not35.i, label %extcap_find_interface_for_ifname.exit.thread, label %.lr.ph.i

.lr.ph.i:                                         ; preds = %12, %14
  %.02345.i = phi ptr [ %.023.i, %14 ], [ %.02343.i, %12 ]
  %16 = load ptr, ptr %.02345.i, align 8
  %.not36.not.i = icmp eq ptr %16, null
  br i1 %.not36.not.i, label %extcap_find_interface_for_ifname.exit.thread, label %17

17:                                               ; preds = %.lr.ph.i
  %18 = load ptr, ptr %16, align 8
  %19 = tail call i32 @g_strcmp0(ptr noundef %18, ptr noundef nonnull %0)
  %20 = icmp eq i32 %19, 0
  br i1 %20, label %extcap_find_interface_for_ifname.exit, label %14

extcap_find_interface_for_ifname.exit:            ; preds = %17
  %21 = getelementptr inbounds nuw i8, ptr %16, i64 24
  %22 = load ptr, ptr %21, align 8
  br label %extcap_find_interface_for_ifname.exit.thread

extcap_find_interface_for_ifname.exit.thread:     ; preds = %14, %.lr.ph.i, %12, %9, %7, %1, %extcap_find_interface_for_ifname.exit
  %23 = phi ptr [ %22, %extcap_find_interface_for_ifname.exit ], [ null, %1 ], [ null, %7 ], [ null, %9 ], [ null, %12 ], [ null, %.lr.ph.i ], [ null, %14 ]
  ret ptr %23
}